Certificate:
    Data:
        Version: 3 (0x2)
        Serial Number: 2 (0x2)
    Signature Algorithm: sha256WithRSAEncryption
        Issuer: CN="WSCA"
        Validity
            Not Before: Dec  4 01:22:07 2015 GMT
            Not After : Dec  1 01:22:07 2025 GMT
        Subject: CN=client0
        Subject Public Key Info:
            Public Key Algorithm: rsaEncryption
                Public-Key: (2048 bit)
                Modulus:
                    00:b5:73:1b:c6:d5:be:5e:84:14:a8:a3:d8:db:bf:
                    d7:92:f8:35:5a:b4:98:f8:83:d9:b2:f6:20:b0:44:
                    2e:db:e1:df:3f:07:e6:d1:97:1f:c2:a9:32:b9:8e:
                    dc:5c:7c:64:23:ca:d1:ed:1e:47:b0:fd:4c:6c:ac:
                    64:d9:11:99:67:1a:f1:b4:e6:bc:fc:46:05:7e:14:
                    d7:44:b2:e0:fa:26:39:c1:f7:f5:f3:01:59:66:ff:
                    40:b8:63:3e:09:14:0d:d0:5a:02:32:ec:d2:cf:d5:
                    f3:72:d1:d5:23:1d:af:87:12:71:f9:66:c6:2c:3c:
                    e6:e1:00:62:47:1d:5a:a6:91:d0:68:55:74:bc:14:
                    16:ed:bb:a3:20:d6:32:91:70:82:91:23:06:8a:cc:
                    6f:c0:a8:62:5f:31:ca:e6:9f:5b:f4:39:b2:a3:f0:
                    fe:23:9a:5c:a4:51:48:29:a2:a3:a1:d5:90:fc:b8:
                    0e:28:9e:f4:5a:72:eb:31:39:91:8f:6d:0c:20:a4:
                    f6:d4:ba:04:b2:d9:ad:57:af:01:4b:55:96:e0:2e:
                    5b:20:f5:f0:0e:c1:0c:a8:9e:b2:65:d8:ea:22:6b:
                    92:f8:23:9d:7e:72:6b:5f:22:89:60:ad:e0:f8:1a:
                    8f:87:02:f1:a6:fc:69:2f:d7:ef:08:aa:0d:a0:c7:
                    0c:d5
                Exponent: 65537 (0x10001)
        X509v3 extensions:
            X509v3 Basic Constraints: 
                CA:FALSE
            X509v3 Subject Key Identifier: 
                86:9B:95:B0:49:9D:3C:43:B2:D2:D8:93:1B:92:D0:7A:80:D0:90:3B
            X509v3 Authority Key Identifier: 
                keyid:78:54:B5:55:08:03:7F:5D:DB:0C:91:B6:B3:29:FA:F0:EC:29:26:2C
                DirName:/CN="WSCA"
                serial:82:C7:D4:BD:F8:C9:39:58

            X509v3 Extended Key Usage: 
                TLS Web Client Authentication
            X509v3 Key Usage: 
                Digital Signature
    Signature Algorithm: sha256WithRSAEncryption
         5b:28:06:ef:0b:44:cc:99:ba:87:90:6e:47:11:55:db:9e:8e:
         80:b8:fb:c9:3d:60:e0:f7:36:4f:ff:c9:24:a8:96:6a:57:99:
         09:95:f5:50:27:0d:04:3f:b8:6f:ee:33:32:56:3c:de:d5:3d:
         9d:5c:87:ee:f8:29:31:a2:a4:04:20:a8:41:d4:d4:94:9d:9d:
         91:a3:e5:94:d4:8a:2a:d4:df:57:84:60:56:e4:a3:de:c2:cb:
         9f:53:31:11:cf:c0:ab:13:f5:8c:9d:50:bd:2f:ba:b5:17:20:
         0e:82:8a:0d:c1:e6:fe:f7:29:6a:6b:8e:0e:79:35:c4:95:51:
         46:3f:a6:23:1b:1c:df:ff:26:ed:b1:44:4d:3c:01:87:3e:7a:
         65:93:c5:f4:5a:42:e2:f4:21:8a:f7:c3:83:bf:73:bb:20:dd:
         a5:9a:b1:31:3c:d4:c7:e4:d2:b1:67:44:82:7e:f5:15:1e:b3:
         31:78:34:d2:48:17:e9:3a:0a:d5:70:f6:65:aa:6f:f6:ca:09:
         07:66:5c:49:02:3f:a8:75:82:84:85:94:fe:38:24:5d:f6:3c:
         42:6f:92:b0:fa:ec:20:41:95:27:4d:c9:db:9e:89:d6:8b:f4:
         9a:9d:17:02:94:d8:63:18:08:0f:4c:1b:f8:4c:40:fe:ec:7b:
         9c:4a:7e:23
-----BEGIN CERTIFICATE-----
MIIDMTCCAhmgAwIBAgIBAjANBgkqhkiG9w0BAQsFADARMQ8wDQYDVQQDFAYiV1ND
QSIwHhcNMTUxMjA0MDEyMjA3WhcNMjUxMjAxMDEyMjA3WjASMRAwDgYDVQQDEwdj
bGllbnQwMIIBIjANBgkqhkiG9w0BAQEFAAOCAQ8AMIIBCgKCAQEAtXMbxtW+XoQU
qKPY27/Xkvg1WrSY+IPZsvYgsEQu2+HfPwfm0ZcfwqkyuY7cXHxkI8rR7R5HsP1M
bKxk2RGZZxrxtOa8/EYFfhTXRLLg+iY5wff18wFZZv9AuGM+CRQN0FoCMuzSz9Xz
ctHVIx2vhxJx+WbGLDzm4QBiRx1appHQaFV0vBQW7bujINYykXCCkSMGisxvwKhi
XzHK5p9b9Dmyo/D+I5pcpFFIKaKjodWQ/LgOKJ70WnLrMTmRj20MIKT21LoEstmt
V68BS1WW4C5bIPXwDsEMqJ6yZdjqImuS+COdfnJrXyKJYK3g+BqPhwLxpvxpL9fv
CKoNoMcM1QIDAQABo4GSMIGPMAkGA1UdEwQCMAAwHQYDVR0OBBYEFIablbBJnTxD
stLYkxuS0HqA0JA7MEEGA1UdIwQ6MDiAFHhUtVUIA39d2wyRtrMp+vDsKSYsoRWk
EzARMQ8wDQYDVQQDFAYiV1NDQSKCCQCCx9S9+Mk5WDATBgNVHSUEDDAKBggrBgEF
BQcDAjALBgNVHQ8EBAMCB4AwDQYJKoZIhvcNAQELBQADggEBAFsoBu8LRMyZuoeQ
bkcRVduejoC4+8k9YOD3Nk//ySSolmpXmQmV9VAnDQQ/uG/uMzJWPN7VPZ1ch+74
KTGipAQgqEHU1JSdnZGj5ZTUiirU31eEYFbko97Cy59TMRHPwKsT9YydUL0vurUX
IA6Cig3B5v73KWprjg55NcSVUUY/piMbHN//Ju2xRE08AYc+emWTxfRaQuL0IYr3
w4O/c7sg3aWasTE81Mfk0rFnRIJ+9RUeszF4NNJIF+k6CtVw9mWqb/bKCQdmXEkC
P6h1goSFlP44JF32PEJvkrD67CBBlSdNydueidaL9JqdFwKU2GMYCA9MG/hMQP7s
e5xKfiM=
-----END CERTIFICATE-----
